(dp0
(I70
I100
tp1
(dp2
(I0
F2.5
tp3
(dp4
S'c'
p5
F0.1251135897810763
sS'b'
p6
F0.8269891860933535
sS'other'
p7
F0.008933775760763697
sss(I600
I1000
tp8
(dp9
(I0
F2.5
tp10
(dp11
g5
F0.21963350785340313
sg6
F0.7866154690071311
sg7
F0.03916676759113479
sss(I200
I300
tp12
(dp13
(I0
F2.5
tp14
(dp15
g5
F0.1726709946381707
sg6
F0.8359364837174729
sg7
F0.010729277214326613
sss(I100
I140
tp16
(dp17
(I0
F2.5
tp18
(dp19
g5
F0.1320327998941939
sg6
F0.8351871105470984
sg7
F0.007610007877147223
sss(I1000
I-1
tp20
(dp21
(I0
F2.5
tp22
(dp23
g5
F0.2403560830860534
sg6
F0.745658835546476
sg7
F0.0717207526588492
sss(I50
I70
tp24
(dp25
(I0
F2.5
tp26
(dp27
g5
F0.12847033871385496
sg6
F0.8128260829540049
sg7
F0.013197136212321584
sss(I300
I600
tp28
(dp29
(I0
F2.5
tp30
(dp31
g5
F0.20237621793597135
sg6
F0.8203413207176411
sg7
F0.01852821204789379
sss(I30
I50
tp32
(dp33
(I0
F2.5
tp34
(dp35
g5
F0.15268377274845127
sg6
F0.7829298314210674
sg7
F0.03069142415553632
sss(I140
I200
tp36
(dp37
(I0
F2.5
tp38
(dp39
g5
F0.14926259107194595
sg6
F0.8396733481524311
sg7
F0.008036428022010711
sss.