(dp0
(I70
I100
tp1
(dp2
(I0
F2.5
tp3
(dp4
S'c'
p5
F0.1024071000421393
sS'b'
p6
F0.7582761228313649
sS'other'
p7
F0.009079989580873417
sss(I600
I1000
tp8
(dp9
(I0
F2.5
tp10
(dp11
g5
F0.06099476439790576
sg6
F0.6022490400438837
sg7
F0.012377376771224415
sss(I200
I300
tp12
(dp13
(I0
F2.5
tp14
(dp15
g5
F0.13052977887163003
sg6
F0.7204256588567265
sg7
F0.012388631780104522
sss(I100
I140
tp16
(dp17
(I0
F2.5
tp18
(dp19
g5
F0.11493188731649252
sg6
F0.7628035298852796
sg7
F0.009236485933999113
sss(I1000
I-1
tp20
(dp21
(I0
F2.5
tp22
(dp23
g5
F0.017804154302670624
sg6
F0.38100102145045966
sg7
F0.0051813471502590676
sss(I50
I70
tp24
(dp25
(I0
F2.5
tp26
(dp27
g5
F0.09924399028476202
sg6
F0.7444312471017822
sg7
F0.010000142722923634
sss(I300
I600
tp28
(dp29
(I0
F2.5
tp30
(dp31
g5
F0.10976337243984888
sg6
F0.6756303829569512
sg7
F0.01596136546932192
sss(I30
I50
tp32
(dp33
(I0
F2.5
tp34
(dp35
g5
F0.10766106909794688
sg6
F0.7088604428800277
sg7
F0.012994420940708863
sss(I140
I200
tp36
(dp37
(I0
F2.5
tp38
(dp39
g5
F0.1292497296991711
sg6
F0.7542231044495001
sg7
F0.01017999895509222
sss.