(dp0
(I70
I100
tp1
(dp2
(I0
F2.5
tp3
(dp4
S'c'
p5
F0.13100884228281962
sS'b'
p6
F0.8364659251563581
sS'other'
p7
F0.009859610081542
sss(I600
I1000
tp8
(dp9
(I0
F2.5
tp10
(dp11
g5
F0.2416526543358155
sg6
F0.7916109797470957
sg7
F0.03642645830039972
sss(I200
I300
tp12
(dp13
(I0
F2.5
tp14
(dp15
g5
F0.1824339316369072
sg6
F0.8432923619217652
sg7
F0.011391364123611749
sss(I100
I140
tp16
(dp17
(I0
F2.5
tp18
(dp19
g5
F0.1398070523158236
sg6
F0.8446906037873223
sg7
F0.008310190323566067
sss(I1000
I-1
tp20
(dp21
(I0
F2.5
tp22
(dp23
g5
F0.2289156626506024
sg6
F0.6829944547134935
sg7
F0.06201146430432517
sss(I50
I70
tp24
(dp25
(I0
F2.5
tp26
(dp27
g5
F0.13244575778502257
sg6
F0.8222958723880986
sg7
F0.014571426423105613
sss(I300
I600
tp28
(dp29
(I0
F2.5
tp30
(dp31
g5
F0.20961454176374247
sg6
F0.8240370784721113
sg7
F0.018701417630414486
sss(I30
I50
tp32
(dp33
(I0
F2.5
tp34
(dp35
g5
F0.1564745308664436
sg6
F0.7943679066507278
sg7
F0.03432375513092182
sss(I140
I200
tp36
(dp37
(I0
F2.5
tp38
(dp39
g5
F0.15917422843919815
sg6
F0.8483202049134348
sg7
F0.008612888247761059
sss.