(dp0
(I70
I100
tp1
(dp2
(I0
F2.4
tp3
(dp4
S'c'
p5
F0.10835494928210405
sS'b'
p6
F0.7783086128744593
sS'other'
p7
F0.008252814217162749
sss(I600
I1000
tp8
(dp9
(I0
F2.4
tp10
(dp11
g5
F0.21980762379764873
sg6
F0.7398953248009852
sg7
F0.07014597080583883
sss(I200
I300
tp12
(dp13
(I0
F2.4
tp14
(dp15
g5
F0.15741055928107023
sg6
F0.7918298859558525
sg7
F0.013623273970874464
sss(I100
I140
tp16
(dp17
(I0
F2.4
tp18
(dp19
g5
F0.11706604800080044
sg6
F0.788963195934182
sg7
F0.007646333218066301
sss(I1000
I-1
tp20
(dp21
(I0
F2.4
tp22
(dp23
g5
F0.22794117647058823
sg6
F0.6685126582278481
sg7
F0.11971830985915492
sss(I50
I70
tp24
(dp25
(I0
F2.4
tp26
(dp27
g5
F0.10897541938593823
sg6
F0.7577281489357094
sg7
F0.011214195632422028
sss(I300
I600
tp28
(dp29
(I0
F2.4
tp30
(dp31
g5
F0.18479508810462736
sg6
F0.7740993696244926
sg7
F0.027943672396411573
sss(I30
I50
tp32
(dp33
(I0
F2.4
tp34
(dp35
g5
F0.12500861507633215
sg6
F0.7162690848360062
sg7
F0.026375258762500898
sss(I140
I200
tp36
(dp37
(I0
F2.4
tp38
(dp39
g5
F0.13401112193892145
sg6
F0.794861514039477
sg7
F0.00905599479679166
sss.
